; Function Attrs: mustprogress null_pointer_is_valid sspstrong uwtable
define noundef ptr @_ZNK12ProfileModel5guardERK11QModelIndex(ptr noundef readonly align 8 captures(none) dereferenceable_or_null(104) %0, ptr noundef readonly align 8 captures(none) dereferenceable(24) %1) local_unnamed_addr #0 align 2 {
  %3 = load i32, ptr %1, align 8
  %4 = icmp sgt i32 %3, -1
  %5 = getelementptr inbounds nuw i8, ptr %1, i64 4
  %6 = load i32, ptr %5, align 4
  %7 = icmp sgt i32 %6, -1
  %or.cond = select i1 %4, i1 %7, i1 false
  %8 = getelementptr inbounds nuw i8, ptr %1, i64 16
  %9 = load ptr, ptr %8, align 8
  %10 = icmp ne ptr %9, null
  %or.cond8 = select i1 %or.cond, i1 %10, i1 false
  br i1 %or.cond8, label %11, label %_ZNK11QModelIndex7isValidEv.exit.thread

11:                                               ; preds = %2
  %12 = tail call noundef ptr @_ZNK12ProfileModel5guardEi(ptr noundef align 8 dereferenceable_or_null(104) %0, i32 noundef %3)
  br label %_ZNK11QModelIndex7isValidEv.exit.thread

_ZNK11QModelIndex7isValidEv.exit.thread:          ; preds = %2, %11
  %.0 = phi ptr [ %12, %11 ], [ null, %2 ]
  ret ptr %.0
}